target datalayout = "e-m:e-p270:32:32-p271:32:32-p272:64:64-i64:64-i128:128-f80:128-n8:16:32:64-S128"
target triple = "x86_64-pc-linux-gnu"

%struct.AVOption = type { ptr, ptr, i32, i32, %union.anon, double, double, i32, ptr }
%union.anon = type { i64 }
%struct.AVDictionaryEntry = type { ptr, ptr }

@.str.16 = private unnamed_addr constant [38 x i8] c"Error setting option %s to value %s.\0A\00", align 1

; Function Attrs: nounwind uwtable
define i32 @av_opt_set(ptr noundef %0, ptr noundef %1, ptr noundef %2, i32 noundef %3) #0 {
  %5 = alloca i32, align 4
  %6 = alloca ptr, align 8
  %7 = alloca ptr, align 8
  %8 = alloca ptr, align 8
  %9 = alloca i32, align 4
  %10 = alloca ptr, align 8
  %11 = alloca ptr, align 8
  %12 = alloca ptr, align 8
  %13 = alloca i32, align 4
  %14 = alloca i32, align 4
  store ptr %0, ptr %6, align 8, !tbaa !4
  store ptr %1, ptr %7, align 8, !tbaa !19
  store ptr %2, ptr %8, align 8, !tbaa !19
  store i32 %3, ptr %9, align 4, !tbaa !20
  call void @llvm.lifetime.start.p0(i64 8, ptr %10) #11
  call void @llvm.lifetime.start.p0(i64 8, ptr %11) #11
  call void @llvm.lifetime.start.p0(i64 8, ptr %12) #11
  call void @llvm.lifetime.start.p0(i64 4, ptr %13) #11
  %15 = load ptr, ptr %6, align 8, !tbaa !4
  %16 = load ptr, ptr %7, align 8, !tbaa !19
  %17 = load i32, ptr %9, align 4, !tbaa !20
  %18 = call i32 @opt_set_init(ptr noundef %15, ptr noundef %16, i32 noundef %17, i32 noundef 0, ptr noundef %11, ptr noundef %12, ptr noundef %10)
  store i32 %18, ptr %13, align 4, !tbaa !20
  %19 = load i32, ptr %13, align 4, !tbaa !20
  %20 = icmp slt i32 %19, 0
  br i1 %20, label %21, label %23

21:                                               ; preds = %4
  %22 = load i32, ptr %13, align 4, !tbaa !20
  store i32 %22, ptr %5, align 4
  store i32 1, ptr %14, align 4
  br label %36

23:                                               ; preds = %4
  %24 = load ptr, ptr %12, align 8, !tbaa !8
  %25 = getelementptr inbounds nuw %struct.AVOption, ptr %24, i32 0, i32 3
  %26 = load i32, ptr %25, align 4, !tbaa !21
  %27 = and i32 %26, 65536
  %28 = icmp ne i32 %27, 0
  %29 = select i1 %28, ptr @opt_set_array, ptr @opt_set_elem
  %30 = load ptr, ptr %6, align 8, !tbaa !4
  %31 = load ptr, ptr %11, align 8, !tbaa !4
  %32 = load ptr, ptr %12, align 8, !tbaa !8
  %33 = load ptr, ptr %8, align 8, !tbaa !19
  %34 = load ptr, ptr %10, align 8, !tbaa !4
  %35 = call i32 %29(ptr noundef %30, ptr noundef %31, ptr noundef %32, ptr noundef %33, ptr noundef %34)
  store i32 %35, ptr %5, align 4
  store i32 1, ptr %14, align 4
  br label %36

36:                                               ; preds = %23, %21
  call void @llvm.lifetime.end.p0(i64 4, ptr %13) #11
  call void @llvm.lifetime.end.p0(i64 8, ptr %12) #11
  call void @llvm.lifetime.end.p0(i64 8, ptr %11) #11
  call void @llvm.lifetime.end.p0(i64 8, ptr %10) #11
  %37 = load i32, ptr %5, align 4
  ret i32 %37
}

; Function Attrs: nounwind uwtable
define i32 @av_opt_set_dict2(ptr noundef %0, ptr noundef %1, i32 noundef %2) #0 {
  %4 = alloca i32, align 4
  %5 = alloca ptr, align 8
  %6 = alloca ptr, align 8
  %7 = alloca i32, align 4
  %8 = alloca ptr, align 8
  %9 = alloca ptr, align 8
  %10 = alloca i32, align 4
  %11 = alloca i32, align 4
  store ptr %0, ptr %5, align 8, !tbaa !4
  store ptr %1, ptr %6, align 8, !tbaa !67
  store i32 %2, ptr %7, align 4, !tbaa !20
  call void @llvm.lifetime.start.p0(i64 8, ptr %8) #11
  store ptr null, ptr %8, align 8, !tbaa !104
  call void @llvm.lifetime.start.p0(i64 8, ptr %9) #11
  store ptr null, ptr %9, align 8, !tbaa !65
  call void @llvm.lifetime.start.p0(i64 4, ptr %10) #11
  %12 = load ptr, ptr %6, align 8, !tbaa !67
  %13 = icmp ne ptr %12, null
  br i1 %13, label %15, label %14

14:                                               ; preds = %3
  store i32 0, ptr %4, align 4
  store i32 1, ptr %11, align 4
  br label %59

15:                                               ; preds = %3
  br label %16

16:                                               ; preds = %54, %15
  %17 = load ptr, ptr %6, align 8, !tbaa !67
  %18 = load ptr, ptr %17, align 8, !tbaa !65
  %19 = load ptr, ptr %8, align 8, !tbaa !104
  %20 = call ptr @av_dict_iterate(ptr noundef %18, ptr noundef %19)
  store ptr %20, ptr %8, align 8, !tbaa !104
  %21 = icmp ne ptr %20, null
  br i1 %21, label %22, label %55

22:                                               ; preds = %16
  %23 = load ptr, ptr %5, align 8, !tbaa !4
  %24 = load ptr, ptr %8, align 8, !tbaa !104
  %25 = getelementptr inbounds nuw %struct.AVDictionaryEntry, ptr %24, i32 0, i32 0
  %26 = load ptr, ptr %25, align 8, !tbaa !106
  %27 = load ptr, ptr %8, align 8, !tbaa !104
  %28 = getelementptr inbounds nuw %struct.AVDictionaryEntry, ptr %27, i32 0, i32 1
  %29 = load ptr, ptr %28, align 8, !tbaa !108
  %30 = load i32, ptr %7, align 4, !tbaa !20
  %31 = call i32 @av_opt_set(ptr noundef %23, ptr noundef %26, ptr noundef %29, i32 noundef %30)
  store i32 %31, ptr %10, align 4, !tbaa !20
  %32 = load i32, ptr %10, align 4, !tbaa !20
  %33 = icmp eq i32 %32, -1414549496
  br i1 %33, label %34, label %42

34:                                               ; preds = %22
  %35 = load ptr, ptr %8, align 8, !tbaa !104
  %36 = getelementptr inbounds nuw %struct.AVDictionaryEntry, ptr %35, i32 0, i32 0
  %37 = load ptr, ptr %36, align 8, !tbaa !106
  %38 = load ptr, ptr %8, align 8, !tbaa !104
  %39 = getelementptr inbounds nuw %struct.AVDictionaryEntry, ptr %38, i32 0, i32 1
  %40 = load ptr, ptr %39, align 8, !tbaa !108
  %41 = call i32 @av_dict_set(ptr noundef %9, ptr noundef %37, ptr noundef %40, i32 noundef 64)
  store i32 %41, ptr %10, align 4, !tbaa !20
  br label %42

42:                                               ; preds = %34, %22
  %43 = load i32, ptr %10, align 4, !tbaa !20
  %44 = icmp slt i32 %43, 0
  br i1 %44, label %45, label %54

45:                                               ; preds = %42
  %46 = load ptr, ptr %5, align 8, !tbaa !4
  %47 = load ptr, ptr %8, align 8, !tbaa !104
  %48 = getelementptr inbounds nuw %struct.AVDictionaryEntry, ptr %47, i32 0, i32 0
  %49 = load ptr, ptr %48, align 8, !tbaa !106
  %50 = load ptr, ptr %8, align 8, !tbaa !104
  %51 = getelementptr inbounds nuw %struct.AVDictionaryEntry, ptr %50, i32 0, i32 1
  %52 = load ptr, ptr %51, align 8, !tbaa !108
  call void (ptr, i32, ptr, ...) @av_log(ptr noundef %46, i32 noundef 16, ptr noundef @.str.16, ptr noundef %49, ptr noundef %52)
  call void @av_dict_free(ptr noundef %9)
  %53 = load i32, ptr %10, align 4, !tbaa !20
  store i32 %53, ptr %4, align 4
  store i32 1, ptr %11, align 4
  br label %59

54:                                               ; preds = %42
  br label %16, !llvm.loop !109

55:                                               ; preds = %16
  %56 = load ptr, ptr %6, align 8, !tbaa !67
  call void @av_dict_free(ptr noundef %56)
  %57 = load ptr, ptr %9, align 8, !tbaa !65
  %58 = load ptr, ptr %6, align 8, !tbaa !67
  store ptr %57, ptr %58, align 8, !tbaa !65
  store i32 0, ptr %4, align 4
  store i32 1, ptr %11, align 4
  br label %59

59:                                               ; preds = %55, %45, %14
  call void @llvm.lifetime.end.p0(i64 4, ptr %10) #11
  call void @llvm.lifetime.end.p0(i64 8, ptr %9) #11
  call void @llvm.lifetime.end.p0(i64 8, ptr %8) #11
  %60 = load i32, ptr %4, align 4
  ret i32 %60
}