; Function Attrs: nounwind uwtable
define range(i32 -2147483648, 1) i32 @av_opt_set_dict2(ptr noundef %0, ptr noundef %1, i32 noundef %2) local_unnamed_addr #2 {
  %4 = alloca ptr, align 8
  %5 = alloca ptr, align 8
  %6 = alloca ptr, align 8
  %7 = alloca ptr, align 8
  call void @llvm.lifetime.start.p0(i64 8, ptr nonnull %7) #18
  store ptr null, ptr %7, align 8, !tbaa !45
  %.not = icmp eq ptr %1, null
  br i1 %.not, label %37, label %.preheader

.preheader:                                       ; preds = %3, %30
  %.017 = phi ptr [ %9, %30 ], [ null, %3 ]
  %8 = load ptr, ptr %1, align 8, !tbaa !45
  %9 = call ptr @av_dict_iterate(ptr noundef %8, ptr noundef %.017) #18
  %.not21 = icmp eq ptr %9, null
  br i1 %.not21, label %35, label %10

10:                                               ; preds = %.preheader
  %11 = load ptr, ptr %9, align 8, !tbaa !94
  %12 = getelementptr inbounds nuw i8, ptr %9, i64 8
  %13 = load ptr, ptr %12, align 8, !tbaa !96
  call void @llvm.lifetime.start.p0(i64 8, ptr nonnull %4) #18
  call void @llvm.lifetime.start.p0(i64 8, ptr nonnull %5) #18
  call void @llvm.lifetime.start.p0(i64 8, ptr nonnull %6) #18
  %14 = call fastcc i32 @opt_set_init(ptr noundef %0, ptr noundef %11, i32 noundef %2, i32 noundef 0, ptr noundef nonnull %5, ptr noundef nonnull %6, ptr noundef %4)
  %15 = icmp slt i32 %14, 0
  br i1 %15, label %av_opt_set.exit, label %16

16:                                               ; preds = %10
  %17 = load ptr, ptr %6, align 8, !tbaa !17
  %18 = getelementptr inbounds nuw i8, ptr %17, i64 20
  %19 = load i32, ptr %18, align 4, !tbaa !18
  %20 = and i32 %19, 65536
  %.not.i = icmp eq i32 %20, 0
  %21 = select i1 %.not.i, ptr @opt_set_elem, ptr @opt_set_array
  %22 = load ptr, ptr %5, align 8, !tbaa !19
  %23 = load ptr, ptr %4, align 8, !tbaa !19
  %24 = call i32 %21(ptr noundef %0, ptr noundef %22, ptr noundef %17, ptr noundef %13, ptr noundef %23) #18, !callees !20
  br label %av_opt_set.exit

av_opt_set.exit:                                  ; preds = %10, %16
  %.0.i = phi i32 [ %24, %16 ], [ %14, %10 ]
  call void @llvm.lifetime.end.p0(i64 8, ptr nonnull %6) #18
  call void @llvm.lifetime.end.p0(i64 8, ptr nonnull %5) #18
  call void @llvm.lifetime.end.p0(i64 8, ptr nonnull %4) #18
  %25 = icmp eq i32 %.0.i, -1414549496
  br i1 %25, label %26, label %30

26:                                               ; preds = %av_opt_set.exit
  %27 = load ptr, ptr %9, align 8, !tbaa !94
  %28 = load ptr, ptr %12, align 8, !tbaa !96
  %29 = call i32 @av_dict_set(ptr noundef nonnull %7, ptr noundef %27, ptr noundef %28, i32 noundef 64) #18
  br label %30

30:                                               ; preds = %26, %av_opt_set.exit
  %.0 = phi i32 [ %29, %26 ], [ %.0.i, %av_opt_set.exit ]
  %31 = icmp slt i32 %.0, 0
  br i1 %31, label %32, label %.preheader, !llvm.loop !97

32:                                               ; preds = %30
  %33 = load ptr, ptr %9, align 8, !tbaa !94
  %34 = load ptr, ptr %12, align 8, !tbaa !96
  call void (ptr, i32, ptr, ...) @av_log(ptr noundef %0, i32 noundef 16, ptr noundef nonnull @.str.16, ptr noundef %33, ptr noundef %34) #18
  call void @av_dict_free(ptr noundef nonnull %7) #18
  br label %37

35:                                               ; preds = %.preheader
  call void @av_dict_free(ptr noundef nonnull %1) #18
  %36 = load ptr, ptr %7, align 8, !tbaa !45
  store ptr %36, ptr %1, align 8, !tbaa !45
  br label %37

37:                                               ; preds = %3, %35, %32
  %.018 = phi i32 [ %.0, %32 ], [ 0, %35 ], [ 0, %3 ]
  call void @llvm.lifetime.end.p0(i64 8, ptr nonnull %7) #18
  ret i32 %.018
}